; Function Attrs: mustprogress null_pointer_is_valid sspstrong uwtable
define void @_ZN19WiresharkMainWindow25editPacketCommentFinishedEP19PacketCommentDialogij(ptr noundef align 8 dereferenceable_or_null(560) %0, ptr noundef %1, i32 noundef %2, i32 noundef %3) #0 align 2 personality ptr @__gxx_personality_v0 {
  %5 = alloca %class.QString, align 8
  %6 = icmp eq i32 %2, 1
  br i1 %6, label %7, label %21

7:                                                ; preds = %4
  %8 = getelementptr inbounds nuw i8, ptr %0, i64 272
  %9 = load ptr, ptr %8, align 8
  call void @_ZN19PacketCommentDialog4textEv(ptr dead_on_unwind nonnull writable sret(%class.QString) align 8 %5, ptr noundef align 8 dereferenceable_or_null(80) %1)
  invoke void @_ZN10PacketList16setPacketCommentEj7QString(ptr noundef align 8 dereferenceable_or_null(432) %9, i32 noundef %3, ptr noundef nonnull %5)
          to label %10 unwind label %15

10:                                               ; preds = %7
  %11 = load ptr, ptr %5, align 8
  %.not.i.i.i = icmp eq ptr %11, null
  br i1 %.not.i.i.i, label %_ZN7QStringD2Ev.exit, label %_ZN17QArrayDataPointerIDsE5derefEv.exit.i.i

_ZN17QArrayDataPointerIDsE5derefEv.exit.i.i:      ; preds = %10
  %12 = atomicrmw sub ptr %11, i32 1 seq_cst, align 4
  %.not.i.i = icmp eq i32 %12, 1
  br i1 %.not.i.i, label %13, label %_ZN7QStringD2Ev.exit

13:                                               ; preds = %_ZN17QArrayDataPointerIDsE5derefEv.exit.i.i
  %14 = load ptr, ptr %5, align 8
  call void @_ZN10QArrayData10deallocateEPS_xx(ptr noundef %14, i64 noundef 2, i64 noundef 8) #25
  br label %_ZN7QStringD2Ev.exit

_ZN7QStringD2Ev.exit:                             ; preds = %10, %_ZN17QArrayDataPointerIDsE5derefEv.exit.i.i, %13
  call void @_ZN10MainWindow23updateForUnsavedChangesEv(ptr noundef align 8 dereferenceable_or_null(360) %0)
  br label %21

15:                                               ; preds = %7
  %16 = landingpad { ptr, i32 }
          cleanup
  %17 = load ptr, ptr %5, align 8
  %.not.i.i.i5 = icmp eq ptr %17, null
  br i1 %.not.i.i.i5, label %_ZN7QStringD2Ev.exit8, label %_ZN17QArrayDataPointerIDsE5derefEv.exit.i.i6

_ZN17QArrayDataPointerIDsE5derefEv.exit.i.i6:     ; preds = %15
  %18 = atomicrmw sub ptr %17, i32 1 seq_cst, align 4
  %.not.i.i7 = icmp eq i32 %18, 1
  br i1 %.not.i.i7, label %19, label %_ZN7QStringD2Ev.exit8

19:                                               ; preds = %_ZN17QArrayDataPointerIDsE5derefEv.exit.i.i6
  %20 = load ptr, ptr %5, align 8
  call void @_ZN10QArrayData10deallocateEPS_xx(ptr noundef %20, i64 noundef 2, i64 noundef 8) #25
  br label %_ZN7QStringD2Ev.exit8

_ZN7QStringD2Ev.exit8:                            ; preds = %15, %_ZN17QArrayDataPointerIDsE5derefEv.exit.i.i6, %19
  resume { ptr, i32 } %16

21:                                               ; preds = %_ZN7QStringD2Ev.exit, %4
  ret void
}